; Function Attrs: nounwind uwtable
define hidden signext i8 @nfaExecTamarama_inAccept(ptr noundef %0, i32 noundef %1, ptr noundef captures(none) %2) local_unnamed_addr #0 {
  %4 = alloca %struct.mq, align 8
  %5 = getelementptr inbounds nuw i8, ptr %0, i64 64
  %6 = getelementptr inbounds nuw i8, ptr %2, i64 24
  %7 = load ptr, ptr %6, align 8
  %8 = getelementptr inbounds nuw i8, ptr %0, i64 68
  %9 = load i8, ptr %8, align 4
  switch i8 %9, label %loadActiveIdx.exit [
    i8 4, label %10
    i8 3, label %12
    i8 2, label %20
    i8 1, label %23
  ]

10:                                               ; preds = %3
  %11 = load i32, ptr %7, align 1
  br label %loadActiveIdx.exit

12:                                               ; preds = %3
  %13 = load i16, ptr %7, align 1
  %14 = zext i16 %13 to i32
  %15 = getelementptr inbounds nuw i8, ptr %7, i64 2
  %16 = load i8, ptr %15, align 1
  %17 = zext i8 %16 to i32
  %18 = shl nuw nsw i32 %17, 16
  %19 = or disjoint i32 %18, %14
  br label %loadActiveIdx.exit

20:                                               ; preds = %3
  %21 = load i16, ptr %7, align 1
  %22 = zext i16 %21 to i32
  br label %loadActiveIdx.exit

23:                                               ; preds = %3
  %24 = load i8, ptr %7, align 1
  %25 = zext i8 %24 to i32
  br label %loadActiveIdx.exit

loadActiveIdx.exit:                               ; preds = %3, %10, %12, %20, %23
  %.0.i.i = phi i32 [ %25, %23 ], [ %22, %20 ], [ %19, %12 ], [ %11, %10 ], [ 0, %3 ]
  %26 = load i32, ptr %5, align 32
  %27 = icmp eq i32 %.0.i.i, %26
  br i1 %27, label %82, label %28

28:                                               ; preds = %loadActiveIdx.exit
  %29 = getelementptr inbounds nuw i8, ptr %0, i64 96
  %30 = zext i32 %26 to i64
  %31 = shl nuw nsw i64 %30, 2
  %32 = getelementptr inbounds nuw i8, ptr %29, i64 %31
  %33 = zext i32 %.0.i.i to i64
  %34 = getelementptr inbounds nuw i32, ptr %32, i64 %33
  %35 = load i32, ptr %34, align 4
  %36 = zext i32 %35 to i64
  %37 = getelementptr inbounds nuw i8, ptr %5, i64 %36
  call void @llvm.lifetime.start.p0(i64 344, ptr nonnull %4) #7
  %38 = getelementptr inbounds nuw i8, ptr %2, i64 16
  %39 = load ptr, ptr %38, align 8
  %40 = getelementptr inbounds nuw i8, ptr %4, i64 16
  store ptr %39, ptr %40, align 8
  %41 = zext i8 %9 to i64
  %42 = getelementptr inbounds nuw i8, ptr %7, i64 %41
  %43 = getelementptr inbounds nuw i8, ptr %4, i64 24
  store ptr %42, ptr %43, align 8
  %44 = getelementptr inbounds nuw i8, ptr %2, i64 32
  %45 = load i64, ptr %44, align 8
  %46 = getelementptr inbounds nuw i8, ptr %4, i64 32
  store i64 %45, ptr %46, align 8
  %47 = getelementptr inbounds nuw i8, ptr %2, i64 40
  %48 = load ptr, ptr %47, align 8
  %49 = getelementptr inbounds nuw i8, ptr %4, i64 40
  store ptr %48, ptr %49, align 8
  %50 = getelementptr inbounds nuw i8, ptr %2, i64 48
  %51 = load i64, ptr %50, align 8
  %52 = getelementptr inbounds nuw i8, ptr %4, i64 48
  store i64 %51, ptr %52, align 8
  %53 = getelementptr inbounds nuw i8, ptr %2, i64 56
  %54 = load ptr, ptr %53, align 8
  %55 = getelementptr inbounds nuw i8, ptr %4, i64 56
  store ptr %54, ptr %55, align 8
  %56 = getelementptr inbounds nuw i8, ptr %2, i64 64
  %57 = load i64, ptr %56, align 8
  %58 = getelementptr inbounds nuw i8, ptr %4, i64 64
  store i64 %57, ptr %58, align 8
  %59 = getelementptr inbounds nuw i8, ptr %2, i64 88
  %60 = load ptr, ptr %59, align 8
  %61 = getelementptr inbounds nuw i8, ptr %4, i64 88
  store ptr %60, ptr %61, align 8
  %62 = getelementptr inbounds nuw i8, ptr %2, i64 96
  %63 = load ptr, ptr %62, align 8
  %64 = getelementptr inbounds nuw i8, ptr %4, i64 96
  store ptr %63, ptr %64, align 8
  %65 = getelementptr inbounds nuw i8, ptr %2, i64 72
  %66 = load ptr, ptr %65, align 8
  %67 = getelementptr inbounds nuw i8, ptr %4, i64 72
  store ptr %66, ptr %67, align 8
  %68 = getelementptr inbounds nuw i8, ptr %2, i64 80
  %69 = load i8, ptr %68, align 8
  %70 = getelementptr inbounds nuw i8, ptr %4, i64 80
  store i8 %69, ptr %70, align 8
  %71 = getelementptr inbounds nuw i8, ptr %2, i64 8
  %72 = load i32, ptr %71, align 8
  %73 = add i32 %72, 1
  store i32 %73, ptr %71, align 8
  %74 = getelementptr inbounds nuw i8, ptr %4, i64 8
  store i32 %72, ptr %74, align 8
  %75 = getelementptr inbounds nuw i8, ptr %4, i64 104
  %76 = zext i32 %72 to i64
  %77 = getelementptr inbounds nuw [10 x %struct.mq_item], ptr %75, i64 0, i64 %76
  %78 = getelementptr inbounds nuw i8, ptr %2, i64 104
  %79 = getelementptr inbounds nuw [10 x %struct.mq_item], ptr %78, i64 0, i64 %76
  call void @llvm.memcpy.p0.p0.i64(ptr noundef nonnull align 8 dereferenceable(24) %77, ptr noundef nonnull align 8 dereferenceable(24) %79, i64 24, i1 false)
  %80 = getelementptr inbounds nuw i8, ptr %4, i64 12
  store i32 %73, ptr %80, align 4
  call fastcc void @copyQueueItems(ptr noundef nonnull readonly %5, ptr noundef nonnull readonly %37, ptr noundef nonnull %2, ptr noundef nonnull %4, i32 noundef %.0.i.i)
  store i32 %72, ptr %71, align 8
  %81 = call signext i8 @nfaInAcceptState(ptr noundef nonnull %37, i32 noundef %1, ptr noundef nonnull %4) #7
  call void @llvm.lifetime.end.p0(i64 344, ptr nonnull %4) #7
  br label %82

82:                                               ; preds = %loadActiveIdx.exit, %28
  %.0 = phi i8 [ %81, %28 ], [ 0, %loadActiveIdx.exit ]
  ret i8 %.0
}